(lp0
(dp1
S'question'
p2
(lp3
I0
aI1
aI2
aI3
aI4
aI5
aI6
aI7
aI8
asS'answers'
p4
(lp5
I0
asa(dp6
g2
(lp7
I0
aI1
aI2
aI3
aI4
aI5
aI21
aI22
aI23
aI24
asg4
(lp8
I1
asa(dp9
g2
(lp10
I0
aI1
aI65
aI66
aI5
aI21
aI67
aI68
aI69
asg4
(lp11
I2
asa(dp12
g2
(lp13
I0
aI1
aI65
aI66
aI5
aI85
aI86
aI87
asg4
(lp14
I3
asa(dp15
g2
(lp16
I96
aI2
aI97
aI98
aI99
asg4
(lp17
I4
asa(dp18
g2
(lp19
I0
aI1
aI2
aI3
aI4
aI5
aI162
aI86
aI87
asg4
(lp20
I5
asa(dp21
g2
(lp22
I171
aI2
aI3
aI172
aI173
aI174
asg4
(lp23
I6
asa(dp24
g2
(lp25
I96
aI2
aI97
aI98
aI291
aI292
aI23
aI293
asg4
(lp26
I7
asa(dp27
g2
(lp28
I0
aI1
aI2
aI3
aI4
aI5
aI302
aI34
aI46
aI303
asg4
(lp29
I8
asa(dp30
g2
(lp31
I0
aI1
aI65
aI66
aI5
aI340
aI34
aI341
asg4
(lp32
I9
asa(dp33
g2
(lp34
I0
aI1
aI355
aI356
aI232
aI357
aI7
aI358
asg4
(lp35
I10
asa(dp36
g2
(lp37
I0
aI1
aI355
aI371
aI372
asg4
(lp38
I11
asa(dp39
g2
(lp40
I171
aI2
aI3
aI172
aI173
aI383
aI34
aI384
asg4
(lp41
I12
asa(dp42
g2
(lp43
I171
aI2
aI3
aI172
aI173
aI437
aI438
asg4
(lp44
I13
asa(dp45
g2
(lp46
I0
aI1
aI2
aI3
aI4
aI5
aI468
aI469
aI42
aI470
aI471
asg4
(lp47
I14
asa(dp48
g2
(lp49
I0
aI1
aI2
aI3
aI4
aI5
aI483
aI484
asg4
(lp50
I15
asa(dp51
g2
(lp52
I96
aI2
aI97
aI98
aI442
aI502
asg4
(lp53
I16
asa(dp54
g2
(lp55
I0
aI1
aI2
aI3
aI4
aI5
aI437
aI438
asg4
(lp56
I17
asa(dp57
g2
(lp58
I0
aI1
aI65
aI66
aI5
aI530
aI206
aI531
asg4
(lp59
I18
asa(dp60
g2
(lp61
I0
aI1
aI65
aI66
aI5
aI541
aI542
aI448
aI86
aI543
asg4
(lp62
I19
asa(dp63
g2
(lp64
I0
aI1
aI355
aI541
aI542
aI2
aI588
aI86
aI589
asg4
(lp65
I20
asa(dp66
g2
(lp67
I0
aI1
aI2
aI3
aI4
aI5
aI609
aI610
aI42
aI611
aI612
asg4
(lp68
I21
asa(dp69
g2
(lp70
I171
aI2
aI3
aI172
aI173
aI625
aI34
aI626
asg4
(lp71
I22
asa(dp72
g2
(lp73
I0
aI1
aI65
aI66
aI5
aI644
aI34
aI645
asg4
(lp74
I23
asa(dp75
g2
(lp76
I0
aI1
aI2
aI3
aI4
aI5
aI669
aI670
asg4
(lp77
I24
asa(dp78
g2
(lp79
I96
aI2
aI97
aI98
aI685
asg4
(lp80
I25
asa(dp81
g2
(lp82
I96
aI2
aI97
aI98
aI709
aI34
aI710
aI711
asg4
(lp83
I26
asa(dp84
g2
(lp85
I0
aI1
aI65
aI66
aI5
aI724
aI42
aI725
asg4
(lp86
I27
asa(dp87
g2
(lp88
I0
aI1
aI65
aI66
aI5
aI437
aI438
asg4
(lp89
I28
asa(dp90
g2
(lp91
I0
aI1
aI65
aI66
aI5
aI771
aI772
asg4
(lp92
I29
asa(dp93
g2
(lp94
I96
aI2
aI97
aI98
aI771
aI772
asg4
(lp95
I30
asa(dp96
g2
(lp97
I96
aI2
aI97
aI98
aI437
aI438
asg4
(lp98
I31
asa(dp99
g2
(lp100
I0
aI1
aI355
aI793
aI42
aI794
asg4
(lp101
I32
asa(dp102
g2
(lp103
I96
aI2
aI97
aI98
aI876
aI86
aI798
aI877
asg4
(lp104
I33
asa(dp105
g2
(lp106
I0
aI1
aI2
aI3
aI4
aI5
aI437
aI438
asg4
(lp107
I34
asa(dp108
g2
(lp109
I0
aI1
aI2
aI3
aI4
aI5
aI876
aI86
aI798
aI922
asg4
(lp110
I35
asa(dp111
g2
(lp112
I96
aI2
aI97
aI98
aI951
aI372
asg4
(lp113
I36
asa(dp114
g2
(lp115
I171
aI2
aI3
aI172
aI173
aI965
aI86
aI966
asg4
(lp116
I37
asa(dp117
g2
(lp118
I171
aI2
aI3
aI172
aI173
aI980
aI86
aI966
asg4
(lp119
I38
asa(dp120
g2
(lp121
I0
aI1
aI2
aI3
aI4
aI5
aI371
aI372
asg4
(lp122
I39
asa(dp123
g2
(lp124
I96
aI2
aI97
aI98
aI398
aI34
aI687
aI1006
asg4
(lp125
I40
asa(dp126
g2
(lp127
I96
aI2
aI97
aI98
aI1014
asg4
(lp128
I41
asa(dp129
g2
(lp130
I0
aI1
aI2
aI3
aI4
aI5
aI1027
aI364
aI34
aI1028
asg4
(lp131
I42
asa(dp132
g2
(lp133
I0
aI1
aI2
aI3
aI4
aI5
aI437
aI438
asg4
(lp134
I43
asa(dp135
g2
(lp136
I0
aI1
aI65
aI66
aI5
aI1142
aI247
aI362
aI364
aI34
aI1028
asg4
(lp137
I44
asa(dp138
g2
(lp139
I96
aI2
aI97
aI98
aI1204
aI34
aI903
aI2
aI1205
asg4
(lp140
I45
asa(dp141
g2
(lp142
I0
aI1
aI2
aI3
aI4
aI5
aI437
aI438
asg4
(lp143
I46
asa(dp144
g2
(lp145
I171
aI2
aI3
aI172
aI173
aI1284
aI34
aI1045
aI34
aI1285
asg4
(lp146
I47
asa(dp147
g2
(lp148
I0
aI1
aI2
aI3
aI4
aI5
aI1301
asg4
(lp149
I48
asa(dp150
g2
(lp151
I0
aI1
aI355
aI1324
aI7
aI1301
asg4
(lp152
I49
asa(dp153
g2
(lp154
I96
aI2
aI97
aI98
aI1142
aI7
aI948
aI42
aI1348
asg4
(lp155
I50
asa(dp156
g2
(lp157
I96
aI2
aI97
aI98
aI1386
aI7
aI41
aI7
aI1387
asg4
(lp158
I51
asa(dp159
g2
(lp160
I0
aI1
aI65
aI66
aI5
aI1027
aI363
aI34
aI1391
asg4
(lp161
I52
asa(dp162
g2
(lp163
I0
aI1
aI355
aI1027
aI364
aI34
aI1028
asg4
(lp164
I53
asa(dp165
g2
(lp166
I96
aI2
aI97
aI98
aI437
aI438
asg4
(lp167
I54
asa(dp168
g2
(lp169
I171
aI2
aI3
aI172
aI173
aI437
aI438
asg4
(lp170
I55
asa(dp171
g2
(lp172
I0
aI1
aI65
aI66
aI5
aI437
aI438
asg4
(lp173
I56
asa(dp174
g2
(lp175
I96
aI2
aI97
aI98
aI291
aI34
aI1387
asg4
(lp176
I57
asa(dp177
g2
(lp178
I0
aI1
aI2
aI3
aI4
aI5
aI1435
aI7
aI358
asg4
(lp179
I58
asa(dp180
g2
(lp181
I96
aI2
aI97
aI98
aI1451
aI1452
aI7
aI17
aI34
aI1387
asg4
(lp182
I59
asa(dp183
g2
(lp184
I96
aI2
aI97
aI98
aI771
aI1467
asg4
(lp185
I60
asa(dp186
g2
(lp187
I0
aI1
aI65
aI66
aI5
aI1561
aI23
aI741
aI34
aI246
aI34
aI1562
asg4
(lp188
I61
asa(dp189
g2
(lp190
I0
aI1
aI355
aI1587
asg4
(lp191
I62
asa(dp192
g2
(lp193
I0
aI1
aI355
aI1587
asg4
(lp194
I63
asa(dp195
g2
(lp196
I0
aI1
aI2
aI3
aI4
aI5
aI771
aI1610
asg4
(lp197
I64
asa(dp198
g2
(lp199
I0
aI1
aI65
aI66
aI5
aI437
aI438
asg4
(lp200
I65
asa(dp201
g2
(lp202
I171
aI2
aI3
aI172
aI173
aI1656
aI34
aI79
aI1657
aI42
aI1610
asg4
(lp203
I66
asa(dp204
g2
(lp205
I0
aI1
aI355
aI1669
aI7
aI358
asg4
(lp206
I67
asa(dp207
g2
(lp208
I0
aI1
aI65
aI66
aI5
aI1656
aI1689
asg4
(lp209
I68
asa(dp210
g2
(lp211
I171
aI2
aI3
aI172
aI173
aI1656
aI1710
asg4
(lp212
I69
asa(dp213
g2
(lp214
I96
aI2
aI97
aI98
aI442
aI1729
asg4
(lp215
I70
asa(dp216
g2
(lp217
I96
aI2
aI97
aI98
aI1749
aI23
aI246
aI34
aI1750
asg4
(lp218
I71
asa(dp219
g2
(lp220
I0
aI1
aI65
aI66
aI5
aI541
aI307
aI1754
asg4
(lp221
I72
asa(dp222
g2
(lp223
I0
aI1
aI2
aI3
aI4
aI5
aI1768
aI1769
aI86
aI1770
asg4
(lp224
I73
asa(dp225
g2
(lp226
I0
aI1
aI65
aI66
aI5
aI1776
aI247
aI1777
asg4
(lp227
I74
asa(dp228
g2
(lp229
I0
aI1
aI65
aI66
aI5
aI1656
aI34
aI1793
asg4
(lp230
I75
asa(dp231
g2
(lp232
I96
aI2
aI97
aI98
aI1798
aI7
aI1269
aI7
aI358
asg4
(lp233
I76
asa(dp234
g2
(lp235
I0
aI1
aI355
aI437
aI438
asg4
(lp236
I77
asa(dp237
g2
(lp238
I96
aI2
aI97
aI98
aI437
aI438
asg4
(lp239
I78
asa(dp240
g2
(lp241
I96
aI2
aI97
aI98
aI437
aI438
asg4
(lp242
I79
asa(dp243
g2
(lp244
I0
aI1
aI355
aI1382
aI1854
asg4
(lp245
I80
asa(dp246
g2
(lp247
I0
aI1
aI2
aI3
aI4
aI5
aI1881
aI247
aI1882
asg4
(lp248
I81
asa(dp249
g2
(lp250
I96
aI2
aI97
aI98
aI1798
aI86
aI1603
aI1886
asg4
(lp251
I82
asa(dp252
g2
(lp253
I171
aI2
aI3
aI172
aI173
aI1923
aI34
aI1777
asg4
(lp254
I83
asa(dp255
g2
(lp256
I0
aI1
aI2
aI3
aI4
aI5
aI1929
aI247
aI1882
asg4
(lp257
I84
asa(dp258
g2
(lp259
I171
aI2
aI3
aI172
aI173
aI1382
aI86
aI1932
asg4
(lp260
I85
asa(dp261
g2
(lp262
I0
aI1
aI355
aI1382
aI1941
asg4
(lp263
I86
asa(dp264
g2
(lp265
I171
aI2
aI3
aI172
aI173
aI1947
aI7
aI1348
asg4
(lp266
I87
asa(dp267
g2
(lp268
I96
aI2
aI97
aI98
aI1958
asg4
(lp269
I88
asa(dp270
g2
(lp271
I0
aI1
aI65
aI66
aI5
aI437
aI438
asg4
(lp272
I89
asa(dp273
g2
(lp274
I171
aI2
aI3
aI172
aI173
aI1947
aI1968
aI42
aI1969
asg4
(lp275
I90
asa(dp276
g2
(lp277
I96
aI2
aI97
aI98
aI437
aI438
asg4
(lp278
I91
asa(dp279
g2
(lp280
I0
aI1
aI355
aI2043
asg4
(lp281
I92
asa(dp282
g2
(lp283
I0
aI1
aI355
aI437
aI438
asg4
(lp284
I93
asa(dp285
g2
(lp286
I96
aI2
aI97
aI98
aI437
aI438
asg4
(lp287
I94
asa(dp288
g2
(lp289
I0
aI1
aI65
aI66
aI5
aI2095
aI34
aI1996
aI34
aI2096
asg4
(lp290
I95
asa(dp291
g2
(lp292
I0
aI1
aI65
aI66
aI5
aI2104
aI7
aI320
aI34
aI810
aI324
aI2105
asg4
(lp293
I96
asa(dp294
g2
(lp295
I0
aI1
aI65
aI66
aI5
aI437
aI438
asg4
(lp296
I97
asa(dp297
g2
(lp298
I171
aI2
aI3
aI172
aI173
aI965
aI86
aI2150
asg4
(lp299
I98
asa(dp300
g2
(lp301
I171
aI2
aI3
aI172
aI173
aI2158
aI125
aI42
aI34
aI2159
aI2160
asg4
(lp302
I99
asa(dp303
g2
(lp304
I0
aI1
aI2
aI3
aI4
aI5
aI50
aI91
aI22
aI23
aI12
aI2182
asg4
(lp305
I100
asa(dp306
g2
(lp307
I0
aI1
aI355
aI2192
aI7
aI2193
asg4
(lp308
I101
asa(dp309
g2
(lp310
I0
aI1
aI65
aI66
aI5
aI2198
aI86
aI107
aI34
aI2168
aI68
aI34
aI2193
asg4
(lp311
I102
asa(dp312
g2
(lp313
I0
aI1
aI65
aI66
aI5
aI2207
aI783
aI68
aI2208
aI86
aI107
aI34
aI2209
asg4
(lp314
I103
asa(dp315
g2
(lp316
I0
aI1
aI65
aI66
aI5
aI2220
aI86
aI2221
asg4
(lp317
I104
asa(dp318
g2
(lp319
I96
aI2
aI97
aI98
aI437
aI438
asg4
(lp320
I105
asa(dp321
g2
(lp322
I0
aI1
aI355
aI2245
aI7
aI2246
asg4
(lp323
I106
asa(dp324
g2
(lp325
I96
aI2
aI97
aI98
aI2245
aI7
aI2246
asg4
(lp326
I107
asa(dp327
g2
(lp328
I0
aI1
aI2
aI3
aI4
aI5
aI2296
aI1631
aI34
aI1592
aI38
aI1328
aI2
aI2297
asg4
(lp329
I108
asa(dp330
g2
(lp331
I0
aI1
aI65
aI66
aI5
aI2296
aI1327
aI34
aI1592
aI38
aI1328
aI46
aI2324
aI2325
asg4
(lp332
I109
asa(dp333
g2
(lp334
I171
aI2
aI3
aI172
aI173
aI437
aI438
asg4
(lp335
I110
asa(dp336
g2
(lp337
I171
aI2
aI3
aI172
aI173
aI2371
aI850
aI7
aI2327
aI1627
aI2
aI46
aI62
aI2372
asg4
(lp338
I111
asa(dp339
g2
(lp340
I96
aI2
aI97
aI98
aI2296
aI23
aI741
aI34
aI2380
aI86
aI241
aI68
aI34
aI999
aI86
aI1603
aI1886
asg4
(lp341
I112
asa(dp342
g2
(lp343
I96
aI2
aI97
aI98
aI2296
aI7
aI1387
asg4
(lp344
I113
asa(dp345
g2
(lp346
I0
aI1
aI2
aI3
aI4
aI5
aI703
aI676
aI2317
aI34
aI2398
asg4
(lp347
I114
asa(dp348
g2
(lp349
I171
aI2
aI3
aI172
aI173
aI2403
aI2404
aI7
aI2398
asg4
(lp350
I115
asa(dp351
g2
(lp352
I0
aI1
aI65
aI66
aI5
aI2403
aI2404
aI7
aI2398
asg4
(lp353
I116
asa(dp354
g2
(lp355
I171
aI2
aI3
aI172
aI173
aI437
aI438
asg4
(lp356
I117
asa(dp357
g2
(lp358
I0
aI1
aI2
aI3
aI4
aI5
aI437
aI438
asg4
(lp359
I118
asa(dp360
g2
(lp361
I0
aI1
aI65
aI66
aI5
aI2220
aI2453
asg4
(lp362
I119
asa(dp363
g2
(lp364
I171
aI2
aI3
aI172
aI173
aI437
aI438
asg4
(lp365
I120
asa(dp366
g2
(lp367
I96
aI2
aI97
aI98
aI437
aI438
asg4
(lp368
I121
asa(dp369
g2
(lp370
I0
aI1
aI65
aI66
aI5
aI2525
asg4
(lp371
I122
asa(dp372
g2
(lp373
I96
aI2
aI97
aI98
aI2531
aI2532
aI868
aI2533
aI68
aI332
aI213
aI2534
asg4
(lp374
I123
asa(dp375
g2
(lp376
I171
aI2
aI3
aI172
aI173
aI2531
aI2532
aI30
aI2541
asg4
(lp377
I124
asa(dp378
g2
(lp379
I171
aI2
aI3
aI172
aI173
aI437
aI438
asg4
(lp380
I125
asa(dp381
g2
(lp382
I0
aI1
aI2
aI3
aI4
aI5
aI2552
aI2553
asg4
(lp383
I126
asa(dp384
g2
(lp385
I0
aI1
aI355
aI437
aI438
asg4
(lp386
I127
asa(dp387
g2
(lp388
I0
aI1
aI2
aI3
aI4
aI5
aI437
aI438
asg4
(lp389
I128
asa(dp390
g2
(lp391
I171
aI2
aI3
aI172
aI173
aI2640
aI34
aI2641
aI2642
asg4
(lp392
I129
asa(dp393
g2
(lp394
I96
aI2
aI97
aI98
aI2640
aI34
aI2641
aI34
aI2648
aI2657
asg4
(lp395
I130
asa(dp396
g2
(lp397
I0
aI1
aI65
aI66
aI5
aI2640
aI324
aI2
aI185
aI68
aI706
aI34
aI2663
asg4
(lp398
I131
asa(dp399
g2
(lp400
I0
aI1
aI355
aI2678
aI34
aI2679
asg4
(lp401
I132
asa(dp402
g2
(lp403
I96
aI2
aI97
aI98
aI437
aI438
asg4
(lp404
I133
asa(dp405
g2
(lp406
I171
aI2
aI3
aI172
aI173
aI437
aI438
asg4
(lp407
I134
asa(dp408
g2
(lp409
I96
aI2
aI97
aI98
aI437
aI438
asg4
(lp410
I135
asa(dp411
g2
(lp412
I0
aI1
aI355
aI2759
asg4
(lp413
I136
asa(dp414
g2
(lp415
I0
aI1
aI65
aI66
aI5
aI2768
asg4
(lp416
I137
asa(dp417
g2
(lp418
I0
aI1
aI2
aI3
aI4
aI5
aI2794
asg4
(lp419
I138
asa(dp420
g2
(lp421
I0
aI1
aI2
aI3
aI4
aI5
aI2804
asg4
(lp422
I139
asa(dp423
g2
(lp424
I0
aI1
aI2
aI3
aI4
aI5
aI2839
aI2840
asg4
(lp425
I140
asa(dp426
g2
(lp427
I0
aI1
aI65
aI66
aI5
aI625
aI86
aI87
asg4
(lp428
I141
asa(dp429
g2
(lp430
I0
aI1
aI355
aI2880
asg4
(lp431
I142
asa(dp432
g2
(lp433
I0
aI1
aI355
aI437
aI438
asg4
(lp434
I143
asa(dp435
g2
(lp436
I0
aI1
aI65
aI66
aI5
aI437
aI438
asg4
(lp437
I144
asa(dp438
g2
(lp439
I96
aI2
aI97
aI98
aI2916
aI2917
asg4
(lp440
I145
asa(dp441
g2
(lp442
I96
aI2
aI97
aI98
aI2941
asg4
(lp443
I146
asa(dp444
g2
(lp445
I0
aI1
aI355
aI2950
aI42
aI2951
aI2952
asg4
(lp446
I147
asa(dp447
g2
(lp448
I0
aI1
aI65
aI66
aI5
aI703
aI2
aI960
aI2971
aI2
aI34
aI2972
asg4
(lp449
I148
asa(dp450
g2
(lp451
I96
aI2
aI97
aI98
aI3009
aI34
aI3010
asg4
(lp452
I149
asa(dp453
g2
(lp454
I96
aI2
aI97
aI98
aI3009
aI34
aI3050
asg4
(lp455
I150
asa(dp456
g2
(lp457
I0
aI1
aI65
aI66
aI5
aI3087
aI3088
asg4
(lp458
I151
asa(dp459
g2
(lp460
I96
aI2
aI97
aI98
aI3103
aI34
aI3104
asg4
(lp461
I152
asa(dp462
g2
(lp463
I0
aI1
aI2
aI3
aI4
aI5
aI437
aI438
asg4
(lp464
I153
asa(dp465
g2
(lp466
I171
aI2
aI3
aI172
aI173
aI3218
asg4
(lp467
I154
asa(dp468
g2
(lp469
I96
aI2
aI97
aI98
aI3232
aI34
aI3222
aI3251
asg4
(lp470
I155
asa(dp471
g2
(lp472
I96
aI2
aI97
aI98
aI3262
asg4
(lp473
I156
asa(dp474
g2
(lp475
I0
aI1
aI65
aI66
aI5
aI3285
asg4
(lp476
I157
asa(dp477
g2
(lp478
I0
aI1
aI65
aI66
aI5
aI3301
aI1337
aI3302
asg4
(lp479
I158
asa(dp480
g2
(lp481
I0
aI1
aI65
aI66
aI5
aI3301
aI3328
asg4
(lp482
I159
asa(dp483
g2
(lp484
I0
aI1
aI355
aI3337
aI34
aI3338
asg4
(lp485
I160
asa(dp486
g2
(lp487
I171
aI2
aI3
aI172
aI173
aI3366
aI68
aI2356
aI34
aI3367
aI38
aI3368
asg4
(lp488
I161
asa(dp489
g2
(lp490
I171
aI2
aI3
aI172
aI173
aI3375
asg4
(lp491
I162
asa(dp492
g2
(lp493
I0
aI1
aI2
aI3
aI4
aI5
aI3389
aI68
aI2688
aI34
aI3390
aI38
aI135
aI3391
asg4
(lp494
I163
asa(dp495
g2
(lp496
I0
aI1
aI2
aI3
aI4
aI5
aI437
aI438
asg4
(lp497
I164
asa(dp498
g2
(lp499
I0
aI1
aI2
aI3
aI4
aI5
aI3337
aI34
aI2993
aI535
aI3402
asg4
(lp500
I165
asa(dp501
g2
(lp502
I96
aI2
aI97
aI98
aI2158
aI3410
asg4
(lp503
I166
asa(dp504
g2
(lp505
I171
aI2
aI3
aI172
aI173
aI3414
aI3415
asg4
(lp506
I167
asa(dp507
g2
(lp508
I0
aI1
aI2
aI3
aI4
aI5
aI437
aI438
asg4
(lp509
I168
asa(dp510
g2
(lp511
I96
aI2
aI97
aI98
aI437
aI438
asg4
(lp512
I169
asa(dp513
g2
(lp514
I96
aI2
aI97
aI98
aI3515
asg4
(lp515
I170
asa(dp516
g2
(lp517
I171
aI2
aI3
aI172
aI173
aI3578
aI3579
asg4
(lp518
I171
asa(dp519
g2
(lp520
I0
aI1
aI65
aI66
aI5
aI3595
aI34
aI3596
asg4
(lp521
I172
asa(dp522
g2
(lp523
I96
aI2
aI97
aI98
aI3605
aI2
aI3606
asg4
(lp524
I173
asa(dp525
g2
(lp526
I0
aI1
aI2
aI3
aI4
aI5
aI3551
aI23
aI3617
asg4
(lp527
I174
asa(dp528
g2
(lp529
I0
aI1
aI65
aI66
aI5
aI3643
aI3644
asg4
(lp530
I175
asa(dp531
g2
(lp532
I0
aI1
aI65
aI66
aI5
aI3654
aI42
aI3655
aI307
aI204
aI68
aI210
aI34
aI200
aI30
aI3656
asg4
(lp533
I176
asa(dp534
g2
(lp535
I171
aI2
aI3
aI172
aI173
aI437
aI438
asg4
(lp536
I177
asa(dp537
g2
(lp538
I0
aI1
aI65
aI66
aI5
aI3551
aI2
aI1754
asg4
(lp539
I178
asa(dp540
g2
(lp541
I171
aI2
aI3
aI172
aI173
aI3741
asg4
(lp542
I179
asa(dp543
g2
(lp544
I0
aI1
aI355
aI437
aI438
asg4
(lp545
I180
asa(dp546
g2
(lp547
I0
aI1
aI355
aI437
aI438
asg4
(lp548
I181
asa(dp549
g2
(lp550
I0
aI1
aI2
aI3
aI4
aI5
aI437
aI438
asg4
(lp551
I182
asa(dp552
g2
(lp553
I96
aI2
aI97
aI98
aI3009
aI34
aI107
aI3825
asg4
(lp554
I183
asa(dp555
g2
(lp556
I171
aI2
aI3
aI172
aI173
aI3350
aI34
aI3906
aI68
aI3907
aI3908
asg4
(lp557
I184
asa(dp558
g2
(lp559
I0
aI1
aI65
aI66
aI5
aI437
aI438
asg4
(lp560
I185
asa(dp561
g2
(lp562
I0
aI1
aI65
aI66
aI5
aI437
aI438
asg4
(lp563
I186
asa(dp564
g2
(lp565
I0
aI1
aI2
aI3
aI4
aI5
aI3957
aI1213
aI34
aI3958
asg4
(lp566
I187
asa(dp567
g2
(lp568
I96
aI2
aI97
aI98
aI3350
aI68
aI3144
aI3976
aI34
aI3977
aI68
aI3978
aI3979
asg4
(lp569
I188
asa(dp570
g2
(lp571
I0
aI1
aI355
aI3957
aI3989
aI34
aI3422
aI38
aI3977
aI68
aI3990
asg4
(lp572
I189
asa(dp573
g2
(lp574
I96
aI2
aI97
aI98
aI437
aI438
asg4
(lp575
I190
asa(dp576
g2
(lp577
I0
aI1
aI2
aI3
aI4
aI5
aI3009
aI86
aI107
aI34
aI4006
asg4
(lp578
I191
asa(dp579
g2
(lp580
I96
aI2
aI97
aI98
aI437
aI438
asg4
(lp581
I192
asa(dp582
g2
(lp583
I0
aI1
aI355
aI4035
aI332
aI2775
aI4036
aI34
aI4037
asg4
(lp584
I193
asa(dp585
g2
(lp586
I0
aI1
aI65
aI66
aI5
aI437
aI438
asg4
(lp587
I194
asa(dp588
g2
(lp589
I0
aI1
aI2
aI3
aI4
aI5
aI4048
aI4049
asg4
(lp590
I195
asa(dp591
g2
(lp592
I0
aI1
aI65
aI66
aI5
aI4135
aI184
aI2
aI186
aI34
aI4136
asg4
(lp593
I196
asa(dp594
g2
(lp595
I0
aI1
aI2
aI3
aI4
aI5
aI4135
aI184
aI2
aI186
aI34
aI4149
aI34
aI888
aI42
aI4150
aI4151
asg4
(lp596
I197
asa(dp597
g2
(lp598
I0
aI1
aI2
aI3
aI4
aI5
aI4135
aI184
aI2
aI186
aI34
aI4158
asg4
(lp599
I198
asa(dp600
g2
(lp601
I96
aI2
aI97
aI98
aI437
aI438
asg4
(lp602
I199
asa(dp603
g2
(lp604
I171
aI2
aI3
aI172
aI173
aI4170
aI34
aI888
aI34
aI4171
aI4172
asg4
(lp605
I200
asa(dp606
g2
(lp607
I0
aI1
aI2
aI3
aI4
aI5
aI437
aI438
asg4
(lp608
I201
asa(dp609
g2
(lp610
I0
aI1
aI2
aI3
aI4
aI5
aI4183
aI34
aI107
aI4184
aI30
aI3
aI4185
asg4
(lp611
I202
asa(dp612
g2
(lp613
I0
aI1
aI2
aI3
aI4
aI5
aI4183
aI34
aI3
aI542
aI2
aI4208
aI86
aI4136
asg4
(lp614
I203
asa(dp615
g2
(lp616
I96
aI2
aI97
aI98
aI4210
aI34
aI934
aI332
aI1599
aI34
aI2094
aI4211
asg4
(lp617
I204
asa(dp618
g2
(lp619
I0
aI1
aI2
aI3
aI4
aI5
aI4210
aI34
aI934
aI332
aI1599
aI34
aI2094
aI4211
asg4
(lp620
I205
asa(dp621
g2
(lp622
I96
aI2
aI97
aI98
aI4220
aI34
aI4221
aI34
aI465
aI2993
aI324
aI93
aI86
aI110
aI4222
asg4
(lp623
I206
asa(dp624
g2
(lp625
I96
aI2
aI97
aI98
aI4232
aI2
aI4233
aI42
aI4234
aI68
aI705
aI34
aI498
aI2
aI3913
aI4235
asg4
(lp626
I207
asa(dp627
g2
(lp628
I96
aI2
aI97
aI98
aI4247
aI68
aI705
aI34
aI4242
aI4248
asg4
(lp629
I208
asa(dp630
g2
(lp631
I0
aI1
aI65
aI66
aI5
aI3009
aI34
aI4253
asg4
(lp632
I209
asa(dp633
g2
(lp634
I0
aI1
aI355
aI437
aI438
asg4
(lp635
I210
asa(dp636
g2
(lp637
I0
aI1
aI2
aI3
aI4
aI5
aI4261
aI2
aI4262
asg4
(lp638
I211
asa(dp639
g2
(lp640
I171
aI2
aI3
aI172
aI173
aI4266
asg4
(lp641
I212
asa(dp642
g2
(lp643
I0
aI1
aI355
aI4135
aI4285
aI81
aI4286
asg4
(lp644
I213
asa(dp645
g2
(lp646
I171
aI2
aI3
aI172
aI173
aI3009
aI2361
aI1337
aI4296
asg4
(lp647
I214
asa(dp648
g2
(lp649
I96
aI2
aI97
aI98
aI4309
aI4310
asg4
(lp650
I215
asa(dp651
g2
(lp652
I0
aI1
aI355
aI4325
aI34
aI4326
asg4
(lp653
I216
asa(dp654
g2
(lp655
I171
aI2
aI3
aI172
aI173
aI437
aI438
asg4
(lp656
I217
asa(dp657
g2
(lp658
I0
aI1
aI65
aI66
aI5
aI4382
aI4285
aI68
aI1337
aI4296
asg4
(lp659
I218
asa(dp660
g2
(lp661
I171
aI2
aI3
aI172
aI173
aI4382
aI4386
asg4
(lp662
I219
asa(dp663
g2
(lp664
I171
aI2
aI3
aI172
aI173
aI2597
aI34
aI358
asg4
(lp665
I220
asa(dp666
g2
(lp667
I0
aI1
aI355
aI1656
aI34
aI4390
aI42
aI93
aI87
asg4
(lp668
I221
asa(dp669
g2
(lp670
I171
aI2
aI3
aI172
aI173
aI4404
aI4405
asg4
(lp671
I222
asa(dp672
g2
(lp673
I0
aI1
aI355
aI4410
aI34
aI4411
asg4
(lp674
I223
asa(dp675
g2
(lp676
I96
aI2
aI97
aI98
aI2158
aI3410
asg4
(lp677
I224
asa(dp678
g2
(lp679
I171
aI2
aI3
aI172
aI173
aI2477
aI34
aI358
asg4
(lp680
I225
asa(dp681
g2
(lp682
I171
aI2
aI3
aI172
aI173
aI4447
aI324
aI4448
aI2
aI4342
aI34
aI2663
asg4
(lp683
I226
asa(dp684
g2
(lp685
I171
aI2
aI3
aI172
aI173
aI4348
aI7
aI4349
aI68
aI427
aI823
aI34
aI3976
aI4310
asg4
(lp686
I227
asa(dp687
g2
(lp688
I0
aI1
aI65
aI66
aI5
aI4468
aI34
aI4469
asg4
(lp689
I228
asa(dp690
g2
(lp691
I171
aI2
aI3
aI172
aI173
aI4479
asg4
(lp692
I229
asa(dp693
g2
(lp694
I171
aI2
aI3
aI172
aI173
aI4457
aI4490
aI34
aI577
aI324
aI1045
aI34
aI3976
aI4310
asg4
(lp695
I230
asa(dp696
g2
(lp697
I96
aI2
aI97
aI98
aI437
aI438
asg4
(lp698
I231
asa(dp699
g2
(lp700
I0
aI1
aI65
aI66
aI5
aI4528
aI4529
asg4
(lp701
I232
asa(dp702
g2
(lp703
I0
aI1
aI65
aI66
aI5
aI4535
aI68
aI2428
aI4529
asg4
(lp704
I233
asa(dp705
g2
(lp706
I171
aI2
aI3
aI172
aI173
aI4575
asg4
(lp707
I234
asa(dp708
g2
(lp709
I0
aI1
aI65
aI66
aI5
aI3605
aI2
aI545
aI4587
aI42
aI4588
aI34
aI4589
asg4
(lp710
I235
asa(dp711
g2
(lp712
I0
aI1
aI2
aI3
aI4
aI5
aI4599
aI2732
aI34
aI4589
asg4
(lp713
I236
asa(dp714
g2
(lp715
I171
aI2
aI3
aI172
aI173
aI4604
aI34
aI334
aI324
aI4605
aI34
aI4606
asg4
(lp716
I237
asa(dp717
g2
(lp718
I171
aI2
aI3
aI172
aI173
aI4604
aI34
aI4606
asg4
(lp719
I238
asa(dp720
g2
(lp721
I0
aI1
aI65
aI66
aI5
aI4613
asg4
(lp722
I239
asa(dp723
g2
(lp724
I0
aI1
aI65
aI66
aI5
aI3593
aI34
aI4632
aI4633
asg4
(lp725
I240
asa(dp726
g2
(lp727
I0
aI1
aI65
aI66
aI5
aI437
aI438
asg4
(lp728
I241
asa(dp729
g2
(lp730
I96
aI2
aI97
aI98
aI3058
aI34
aI629
aI34
aI4649
asg4
(lp731
I242
asa(dp732
g2
(lp733
I0
aI1
aI65
aI66
aI5
aI2678
aI1689
asg4
(lp734
I243
asa(dp735
g2
(lp736
I171
aI2
aI3
aI172
aI173
aI4677
aI34
aI4641
aI757
aI2
aI577
aI4678
asg4
(lp737
I244
asa(dp738
g2
(lp739
I0
aI1
aI355
aI2678
aI4696
asg4
(lp740
I245
asa(dp741
g2
(lp742
I0
aI1
aI2
aI3
aI4
aI5
aI437
aI438
asg4
(lp743
I246
asa(dp744
g2
(lp745
I0
aI1
aI2
aI3
aI4
aI5
aI437
aI438
asg4
(lp746
I247
asa(dp747
g2
(lp748
I171
aI2
aI3
aI172
aI173
aI4728
aI34
aI3596
asg4
(lp749
I248
asa(dp750
g2
(lp751
I0
aI1
aI65
aI66
aI5
aI4741
asg4
(lp752
I249
asa(dp753
g2
(lp754
I0
aI1
aI65
aI66
aI5
aI4769
asg4
(lp755
I250
asa(dp756
g2
(lp757
I0
aI1
aI355
aI4073
aI34
aI4786
aI4787
aI68
aI4788
asg4
(lp758
I251
asa(dp759
g2
(lp760
I171
aI2
aI3
aI172
aI173
aI437
aI438
asg4
(lp761
I252
asa(dp762
g2
(lp763
I0
aI1
aI65
aI66
aI5
aI4798
asg4
(lp764
I253
asa(dp765
g2
(lp766
I96
aI2
aI97
aI98
aI2640
aI34
aI4802
asg4
(lp767
I254
asa(dp768
g2
(lp769
I0
aI1
aI2
aI3
aI4
aI5
aI4808
aI68
aI4809
asg4
(lp770
I255
asa(dp771
g2
(lp772
I0
aI1
aI65
aI66
aI5
aI437
aI438
asg4
(lp773
I256
asa(dp774
g2
(lp775
I0
aI1
aI355
aI437
aI438
asg4
(lp776
I257
asa(dp777
g2
(lp778
I96
aI2
aI97
aI98
aI4823
aI34
aI687
aI68
aI4824
asg4
(lp779
I258
asa(dp780
g2
(lp781
I0
aI1
aI2
aI3
aI4
aI5
aI2640
aI34
aI4814
aI4831
asg4
(lp782
I259
asa(dp783
g2
(lp784
I0
aI1
aI65
aI66
aI5
aI437
aI438
asg4
(lp785
I260
asa(dp786
g2
(lp787
I0
aI1
aI2
aI3
aI4
aI5
aI4135
aI184
aI2
aI810
aI34
aI93
aI507
aI34
aI4883
asg4
(lp788
I261
asa(dp789
g2
(lp790
I0
aI1
aI65
aI66
aI5
aI2552
aI2553
asg4
(lp791
I262
asa(dp792
g2
(lp793
I0
aI1
aI2
aI3
aI4
aI5
aI4894
aI34
aI4895
asg4
(lp794
I263
asa(dp795
g2
(lp796
I0
aI1
aI355
aI4135
aI184
aI2
aI810
aI34
aI126
aI34
aI4115
aI4903
asg4
(lp797
I264
asa(dp798
g2
(lp799
I0
aI1
aI355
aI437
aI438
asg4
(lp800
I265
asa(dp801
g2
(lp802
I0
aI1
aI355
aI4923
asg4
(lp803
I266
asa(dp804
g2
(lp805
I0
aI1
aI2
aI3
aI4
aI5
aI4929
aI34
aI320
aI4930
aI4931
asg4
(lp806
I267
asa(dp807
g2
(lp808
I171
aI2
aI3
aI172
aI173
aI4940
aI34
aI4941
aI34
aI4942
asg4
(lp809
I268
asa(dp810
g2
(lp811
I0
aI1
aI2
aI3
aI4
aI5
aI4946
aI34
aI4901
aI4947
aI68
aI34
aI736
aI4664
aI68
aI4948
asg4
(lp812
I269
asa(dp813
g2
(lp814
I0
aI1
aI355
aI4112
aI68
aI4958
aI34
aI4901
aI4959
asg4
(lp815
I270
asa(dp816
g2
(lp817
I171
aI2
aI3
aI172
aI173
aI437
aI438
asg4
(lp818
I271
asa(dp819
g2
(lp820
I171
aI2
aI3
aI172
aI173
aI437
aI438
asg4
(lp821
I272
asa(dp822
g2
(lp823
I171
aI2
aI3
aI172
aI173
aI5033
aI34
aI1963
aI5034
aI68
aI34
aI736
aI232
aI5035
asg4
(lp824
I273
asa(dp825
g2
(lp826
I0
aI1
aI2
aI3
aI4
aI5
aI5052
aI68
aI4077
aI332
aI2775
aI5053
asg4
(lp827
I274
asa(dp828
g2
(lp829
I0
aI1
aI65
aI66
aI5
aI5064
aI68
aI736
aI361
aI281
aI676
aI466
aI994
aI5065
asg4
(lp830
I275
asa(dp831
g2
(lp832
I0
aI1
aI355
aI5073
aI3445
aI2
aI5074
asg4
(lp833
I276
asa(dp834
g2
(lp835
I0
aI1
aI2
aI3
aI4
aI5
aI3643
aI5058
aI5078
aI2
aI706
aI4903
asg4
(lp836
I277
asa(dp837
g2
(lp838
I0
aI1
aI355
aI5073
aI5080
asg4
(lp839
I278
asa(dp840
g2
(lp841
I0
aI1
aI2
aI3
aI4
aI5
aI5091
aI38
aI2673
aI332
aI5092
aI5093
asg4
(lp842
I279
asa(dp843
g2
(lp844
I0
aI1
aI65
aI66
aI5
aI437
aI438
asg4
(lp845
I280
asa(dp846
g2
(lp847
I0
aI1
aI65
aI66
aI5
aI437
aI438
asg4
(lp848
I281
asa(dp849
g2
(lp850
I171
aI2
aI3
aI172
aI173
aI5222
asg4
(lp851
I282
asa(dp852
g2
(lp853
I171
aI2
aI3
aI172
aI173
aI5229
asg4
(lp854
I283
asa(dp855
g2
(lp856
I0
aI1
aI2
aI3
aI4
aI5
aI2552
aI2553
asg4
(lp857
I284
asa(dp858
g2
(lp859
I96
aI2
aI97
aI98
aI5245
aI81
aI87
asg4
(lp860
I285
asa(dp861
g2
(lp862
I96
aI2
aI97
aI98
aI5248
aI34
aI12
aI68
aI5249
asg4
(lp863
I286
asa(dp864
g2
(lp865
I96
aI2
aI97
aI98
aI5252
aI5253
asg4
(lp866
I287
asa(dp867
g2
(lp868
I0
aI1
aI2
aI3
aI4
aI5
aI5280
aI5281
asg4
(lp869
I288
asa(dp870
g2
(lp871
I0
aI1
aI355
aI5302
aI5303
aI81
aI34
aI5285
aI5281
asg4
(lp872
I289
asa(dp873
g2
(lp874
I96
aI2
aI97
aI98
aI5333
aI324
aI2355
aI34
aI5334
asg4
(lp875
I290
asa(dp876
g2
(lp877
I0
aI1
aI355
aI5341
aI34
aI3808
aI81
aI5342
aI13
aI5343
aI5344
asg4
(lp878
I291
asa(dp879
g2
(lp880
I0
aI1
aI355
aI5354
aI34
aI5355
aI5356
asg4
(lp881
I292
asa(dp882
g2
(lp883
I0
aI1
aI355
aI5333
aI34
aI5074
asg4
(lp884
I293
asa(dp885
g2
(lp886
I96
aI2
aI97
aI98
aI437
aI438
asg4
(lp887
I294
asa(dp888
g2
(lp889
I0
aI1
aI2
aI3
aI4
aI5
aI5354
aI86
aI5360
aI68
aI3344
aI5424
asg4
(lp890
I295
asa(dp891
g2
(lp892
I171
aI2
aI3
aI172
aI173
aI5354
aI34
aI2076
aI5424
asg4
(lp893
I296
asa(dp894
g2
(lp895
I171
aI2
aI3
aI172
aI173
aI437
aI438
asg4
(lp896
I297
asa(dp897
g2
(lp898
I171
aI2
aI3
aI172
aI173
aI5473
aI5474
asg4
(lp899
I298
asa(dp900
g2
(lp901
I0
aI1
aI2
aI3
aI4
aI5
aI5483
aI2412
aI34
aI5484
aI68
aI5485
asg4
(lp902
I299
asa(dp903
g2
(lp904
I96
aI2
aI97
aI98
aI5489
aI68
aI5490
aI5491
aI5492
asg4
(lp905
I300
asa(dp906
g2
(lp907
I96
aI2
aI97
aI98
aI5473
aI34
aI5490
aI5502
asg4
(lp908
I301
asa(dp909
g2
(lp910
I0
aI1
aI65
aI66
aI5
aI5505
aI68
aI4988
aI34
aI5360
aI68
aI5506
aI5507
asg4
(lp911
I302
asa(dp912
g2
(lp913
I0
aI1
aI355
aI4073
aI34
aI2076
aI5492
asg4
(lp914
I303
asa(dp915
g2
(lp916
I0
aI1
aI355
aI3366
aI34
aI5521
asg4
(lp917
I304
asa(dp918
g2
(lp919
I0
aI1
aI355
aI437
aI438
asg4
(lp920
I305
asa(dp921
g2
(lp922
I171
aI2
aI3
aI172
aI173
aI3957
aI5535
asg4
(lp923
I306
asa(dp924
g2
(lp925
I96
aI2
aI97
aI98
aI437
aI438
asg4
(lp926
I307
asa(dp927
g2
(lp928
I96
aI2
aI97
aI98
aI3551
aI34
aI3
aI542
aI5542
asg4
(lp929
I308
asa(dp930
g2
(lp931
I0
aI1
aI355
aI437
aI438
asg4
(lp932
I309
asa(dp933
g2
(lp934
I0
aI1
aI65
aI66
aI5
aI437
aI438
asg4
(lp935
I310
asa(dp936
g2
(lp937
I0
aI1
aI2
aI3
aI4
aI5
aI5604
asg4
(lp938
I311
asa(dp939
g2
(lp940
I96
aI2
aI97
aI98
aI5616
aI1337
aI545
aI34
aI2663
asg4
(lp941
I312
asa(dp942
g2
(lp943
I0
aI1
aI355
aI437
aI438
asg4
(lp944
I313
asa(dp945
g2
(lp946
I0
aI1
aI355
aI5033
aI3764
aI34
aI5656
aI68
aI5376
aI5657
asg4
(lp947
I314
asa(dp948
g2
(lp949
I171
aI2
aI3
aI172
aI173
aI5660
asg4
(lp950
I315
asa(dp951
g2
(lp952
I0
aI1
aI2
aI3
aI4
aI5
aI4112
aI5677
asg4
(lp953
I316
asa(dp954
g2
(lp955
I0
aI1
aI355
aI5690
aI34
aI5691
aI68
aI5692
asg4
(lp956
I317
asa(dp957
g2
(lp958
I171
aI2
aI3
aI172
aI173
aI5698
asg4
(lp959
I318
asa(dp960
g2
(lp961
I0
aI1
aI65
aI66
aI5
aI5718
aI5719
asg4
(lp962
I319
asa(dp963
g2
(lp964
I0
aI1
aI355
aI5726
aI4211
asg4
(lp965
I320
asa(dp966
g2
(lp967
I0
aI1
aI355
aI2613
aI5731
asg4
(lp968
I321
asa(dp969
g2
(lp970
I96
aI2
aI97
aI98
aI2678
aI34
aI5734
asg4
(lp971
I322
asa(dp972
g2
(lp973
I96
aI2
aI97
aI98
aI4210
aI5740
aI5741
aI5742
aI68
aI5743
asg4
(lp974
I323
asa(dp975
g2
(lp976
I0
aI1
aI2
aI3
aI4
aI5
aI3009
aI34
aI2050
aI5754
asg4
(lp977
I324
asa(dp978
g2
(lp979
I96
aI2
aI97
aI98
aI3009
aI86
aI2050
aI34
aI2365
aI34
aI5763
asg4
(lp980
I325
asa(dp981
g2
(lp982
I96
aI2
aI97
aI98
aI5767
aI5424
asg4
(lp983
I326
asa(dp984
g2
(lp985
I96
aI2
aI97
aI98
aI3350
aI34
aI1258
aI4903
asg4
(lp986
I327
asa(dp987
g2
(lp988
I0
aI1
aI355
aI5785
asg4
(lp989
I328
asa(dp990
g2
(lp991
I96
aI2
aI97
aI98
aI5792
asg4
(lp992
I329
asa(dp993
g2
(lp994
I0
aI1
aI65
aI66
aI5
aI5795
asg4
(lp995
I330
asa(dp996
g2
(lp997
I0
aI1
aI355
aI4457
aI34
aI5799
asg4
(lp998
I331
asa(dp999
g2
(lp1000
I0
aI1
aI2
aI3
aI4
aI5
aI4112
aI5807
asg4
(lp1001
I332
asa(dp1002
g2
(lp1003
I0
aI1
aI2
aI3
aI4
aI5
aI5820
aI42
aI5821
asg4
(lp1004
I333
asa(dp1005
g2
(lp1006
I0
aI1
aI2
aI3
aI4
aI5
aI437
aI438
asg4
(lp1007
I334
asa(dp1008
g2
(lp1009
I0
aI1
aI65
aI66
aI5
aI5875
aI34
aI5876
aI68
aI34
aI5877
asg4
(lp1010
I335
asa(dp1011
g2
(lp1012
I96
aI2
aI97
aI98
aI4728
aI68
aI2591
aI34
aI5649
aI68
aI5521
asg4
(lp1013
I336
asa(dp1014
g2
(lp1015
I0
aI1
aI2
aI3
aI4
aI5
aI5956
aI34
aI230
aI5957
asg4
(lp1016
I337
asa(dp1017
g2
(lp1018
I0
aI1
aI2
aI3
aI4
aI5
aI5962
aI5963
asg4
(lp1019
I338
asa(dp1020
g2
(lp1021
I0
aI1
aI355
aI5982
aI2775
aI34
aI12
aI68
aI34
aI5983
asg4
(lp1022
I339
asa(dp1023
g2
(lp1024
I0
aI1
aI2
aI3
aI4
aI5
aI437
aI438
asg4
(lp1025
I340
asa(dp1026
g2
(lp1027
I171
aI2
aI3
aI172
aI173
aI5483
aI5990
aI68
aI2775
aI5991
asg4
(lp1028
I341
asa(dp1029
g2
(lp1030
I171
aI2
aI3
aI172
aI173
aI437
aI438
asg4
(lp1031
I342
asa(dp1032
g2
(lp1033
I0
aI1
aI355
aI609
aI23
aI932
aI86
aI6026
asg4
(lp1034
I343
asa(dp1035
g2
(lp1036
I96
aI2
aI97
aI98
aI4210
aI6031
aI247
aI6032
aI6033
asg4
(lp1037
I344
asa(dp1038
g2
(lp1039
I171
aI2
aI3
aI172
aI173
aI437
aI438
asg4
(lp1040
I345
asa(dp1041
g2
(lp1042
I0
aI1
aI65
aI66
aI5
aI3551
aI6043
asg4
(lp1043
I346
asa(dp1044
g2
(lp1045
I171
aI2
aI3
aI172
aI173
aI4348
aI6052
asg4
(lp1046
I347
asa(dp1047
g2
(lp1048
I171
aI2
aI3
aI172
aI173
aI4348
aI6058
asg4
(lp1049
I348
asa(dp1050
g2
(lp1051
I0
aI1
aI2
aI3
aI4
aI5
aI4210
aI6031
aI68
aI1504
aI34
aI6076
asg4
(lp1052
I349
asa(dp1053
g2
(lp1054
I171
aI2
aI3
aI172
aI173
aI6093
aI34
aI577
aI6094
aI68
aI6095
aI2
aI320
aI34
aI2096
asg4
(lp1055
I350
asa(dp1056
g2
(lp1057
I0
aI1
aI2
aI3
aI4
aI5
aI6105
aI1337
aI486
aI184
aI2
aI6106
asg4
(lp1058
I351
asa(dp1059
g2
(lp1060
I96
aI2
aI97
aI98
aI6112
aI34
aI966
asg4
(lp1061
I352
asa(dp1062
g2
(lp1063
I0
aI1
aI2
aI3
aI4
aI5
aI6116
aI34
aI6117
asg4
(lp1064
I353
asa(dp1065
g2
(lp1066
I0
aI1
aI355
aI6124
aI6125
asg4
(lp1067
I354
asa(dp1068
g2
(lp1069
I0
aI1
aI65
aI66
aI5
aI3058
aI34
aI3997
aI68
aI2428
aI34
aI1169
aI6143
asg4
(lp1070
I355
asa(dp1071
g2
(lp1072
I171
aI2
aI3
aI172
aI173
aI6149
aI34
aI6150
asg4
(lp1073
I356
asa(dp1074
g2
(lp1075
I0
aI1
aI2
aI3
aI4
aI5
aI2613
aI68
aI4188
aI38
aI6157
aI2453
asg4
(lp1076
I357
asa(dp1077
g2
(lp1078
I0
aI1
aI65
aI66
aI5
aI6159
aI2
aI2094
aI2455
aI542
aI971
aI68
aI1269
aI34
aI6160
asg4
(lp1079
I358
asa(dp1080
g2
(lp1081
I0
aI1
aI65
aI66
aI5
aI437
aI438
asg4
(lp1082
I359
asa(dp1083
g2
(lp1084
I0
aI1
aI65
aI66
aI5
aI437
aI438
asg4
(lp1085
I360
asa.